; Function Attrs: nounwind uwtable
define dso_local void @set_commit_buffer(ptr noundef readonly captures(none) %0, ptr noundef readonly captures(none) %1, ptr noundef %2, i64 noundef %3) local_unnamed_addr #0 {
  %5 = getelementptr inbounds nuw i8, ptr %0, i64 24
  %6 = load ptr, ptr %5, align 8, !tbaa !12
  %7 = getelementptr inbounds nuw i8, ptr %6, i64 112
  %8 = load ptr, ptr %7, align 8, !tbaa !76
  %9 = getelementptr i8, ptr %1, i64 64
  %.val = load i32, ptr %9, align 8, !tbaa !77
  %10 = load i32, ptr %8, align 8, !tbaa !70
  %11 = udiv i32 %.val, %10
  %12 = urem i32 %.val, %10
  %13 = getelementptr inbounds nuw i8, ptr %8, i64 8
  %14 = load i32, ptr %13, align 8, !tbaa !71
  %.not.i.i = icmp ugt i32 %14, %11
  br i1 %.not.i.i, label %._crit_edge4.i.i, label %15

._crit_edge4.i.i:                                 ; preds = %4
  %.phi.trans.insert.i.i = getelementptr inbounds nuw i8, ptr %8, i64 16
  %.pre.i.i = load ptr, ptr %.phi.trans.insert.i.i, align 8, !tbaa !72
  br label %26

15:                                               ; preds = %4
  %16 = add i32 %11, 1
  %17 = zext i32 %16 to i64
  %18 = getelementptr inbounds nuw i8, ptr %8, i64 16
  %19 = load ptr, ptr %18, align 8, !tbaa !72
  %20 = shl nuw nsw i64 %17, 3
  %21 = tail call ptr @xrealloc(ptr noundef %19, i64 noundef %20) #24
  store ptr %21, ptr %18, align 8, !tbaa !72
  %22 = load i32, ptr %13, align 8, !tbaa !71
  %.not342.i.i = icmp ugt i32 %22, %11
  br i1 %.not342.i.i, label %._crit_edge.i.i, label %.lr.ph.i.i

.lr.ph.i.i:                                       ; preds = %15, %.lr.ph.i.i
  %.0303.i.i = phi i32 [ %25, %.lr.ph.i.i ], [ %22, %15 ]
  %23 = zext i32 %.0303.i.i to i64
  %24 = getelementptr inbounds nuw ptr, ptr %21, i64 %23
  store ptr null, ptr %24, align 8, !tbaa !73
  %25 = add i32 %.0303.i.i, 1
  %.not34.i.i = icmp ugt i32 %25, %11
  br i1 %.not34.i.i, label %._crit_edge.i.i, label %.lr.ph.i.i, !llvm.loop !78

._crit_edge.i.i:                                  ; preds = %.lr.ph.i.i, %15
  store i32 %16, ptr %13, align 8, !tbaa !71
  br label %26

26:                                               ; preds = %._crit_edge.i.i, %._crit_edge4.i.i
  %27 = phi ptr [ %.pre.i.i, %._crit_edge4.i.i ], [ %21, %._crit_edge.i.i ]
  %28 = zext i32 %11 to i64
  %29 = getelementptr inbounds nuw ptr, ptr %27, i64 %28
  %30 = load ptr, ptr %29, align 8, !tbaa !73
  %.not35.i.i = icmp eq ptr %30, null
  br i1 %.not35.i.i, label %31, label %buffer_slab_at.exit

31:                                               ; preds = %26
  %32 = getelementptr inbounds nuw i8, ptr %8, i64 16
  %33 = load i32, ptr %8, align 8, !tbaa !70
  %34 = zext i32 %33 to i64
  %35 = getelementptr inbounds nuw i8, ptr %8, i64 4
  %36 = load i32, ptr %35, align 4, !tbaa !67
  %37 = zext i32 %36 to i64
  %38 = shl nuw nsw i64 %37, 4
  %39 = tail call ptr @xcalloc(i64 noundef %34, i64 noundef %38) #24
  %40 = load ptr, ptr %32, align 8, !tbaa !72
  %41 = getelementptr inbounds nuw ptr, ptr %40, i64 %28
  store ptr %39, ptr %41, align 8, !tbaa !73
  br label %buffer_slab_at.exit

buffer_slab_at.exit:                              ; preds = %26, %31
  %42 = phi ptr [ %39, %31 ], [ %30, %26 ]
  %43 = getelementptr inbounds nuw i8, ptr %8, i64 4
  %44 = load i32, ptr %43, align 4, !tbaa !67
  %45 = mul i32 %44, %12
  %46 = zext i32 %45 to i64
  %47 = getelementptr inbounds nuw %struct.commit_buffer, ptr %42, i64 %46
  store ptr %2, ptr %47, align 8, !tbaa !79
  %48 = getelementptr inbounds nuw i8, ptr %47, i64 8
  store i64 %3, ptr %48, align 8, !tbaa !81
  ret void
}